; Function Attrs: mustprogress uwtable
define dso_local void @_ZN3tev10ThreadPoolC2Ev(ptr noundef nonnull align 8 dereferenceable(256) %0) unnamed_addr #1 align 2 personality ptr @__gxx_personality_v0 {
  %2 = tail call noundef i32 @_ZNSt3__16thread20hardware_concurrencyEv() #13
  store ptr getelementptr inbounds ({ [4 x ptr] }, ptr @_ZTVN3tev10ThreadPoolE, i64 0, i32 0, i64 2), ptr %0, align 8
  %3 = getelementptr inbounds i8, ptr %0, i64 8
  %4 = getelementptr inbounds i8, ptr %0, i64 72
  tail call void @llvm.memset.p0.i64(ptr noundef nonnull align 8 dereferenceable(56) %3, i8 0, i64 56, i1 false)
  tail call void @llvm.memset.p0.i64(ptr noundef nonnull align 8 dereferenceable(184) %4, i8 0, i64 184, i1 false)
  %5 = tail call noundef i32 @_ZNSt3__16thread20hardware_concurrencyEv() #13
  %6 = tail call i32 @llvm.umin.i32(i32 %5, i32 %2)
  %.sroa.speculated.i = zext i32 %6 to i64
  invoke void @_ZN3tev10ThreadPool12startThreadsEm(ptr noundef nonnull align 8 dereferenceable(256) %0, i64 noundef %.sroa.speculated.i)
          to label %_ZN3tev10ThreadPoolC2Emb.exit unwind label %7

7:                                                ; preds = %1
  %8 = landingpad { ptr, i32 }
          cleanup
  %9 = getelementptr inbounds i8, ptr %0, i64 208
  %10 = getelementptr inbounds i8, ptr %0, i64 112
  %11 = getelementptr inbounds i8, ptr %0, i64 40
  %12 = getelementptr inbounds i8, ptr %0, i64 16
  tail call void @_ZNSt3__118condition_variableD1Ev(ptr noundef nonnull align 8 dereferenceable(48) %9) #13
  tail call void @_ZNSt3__118condition_variableD1Ev(ptr noundef nonnull align 8 dereferenceable(48) %10) #13
  tail call void @_ZNSt3__114priority_queueIN3tev10ThreadPool10QueuedTaskENS_6vectorIS3_NS_9allocatorIS3_EEEENS3_10ComparatorEED2Ev(ptr noundef nonnull align 8 dereferenceable(25) %11) #13
  tail call void @_ZNSt3__16vectorINS_6threadENS_9allocatorIS1_EEED2B8ne190000Ev(ptr noundef nonnull align 8 dereferenceable(24) %12) #13
  resume { ptr, i32 } %8

_ZN3tev10ThreadPoolC2Emb.exit:                    ; preds = %1
  %13 = getelementptr inbounds i8, ptr %0, i64 160
  store atomic i64 0, ptr %13 seq_cst, align 8
  ret void
}